(lp0
Vsoftcore
p1
aVpornography
p2
aVnudity
p3
aVfilm
p4
aVhuman
p5
aVsexual
p6
aVactivity
p7
aVsexual
p8
aVpenetration
p9
aVsexual
p10
aVfetish
p11
aVhardcore
p12
aVpornography
p13
aVhuman
p14
aVsexual
p15
aVactivity
p16
aVsexual
p17
aVpenetration
p18
aVedit
p19
aVsection:
p20
aVoverview
p21
aVsexual
p22
aVpenetration
p23
aVsexual
p24
aVfetish
p25
aVniche
p26
aVmarket
p27
aVconvention
p28
aV(norm)
p29
aVlarge
p30
aVpenis
p31
aVsexualization
p32
aVfeminist
p33
aVpornography
p34
aVedit
p35
aVsection:
p36
aVgenre
p37
aVphysical
p38
aVcharacteristics
p39
aVedit
p40
aVsection:
p41
aVhair
p42
aVhair
p43
aVfetishism
p44
aVlong
p45
aVhair
p46
aVpubic
p47
aVhair
p48
aVhair
p49
aVcutting
p50
aVhair
p51
aV(page
p52
aVdoes
p53
aVexist)
p54
aVedit
p55
aVsection:
p56
aVbody
p57
aVfeatures
p58
aVbeautiful
p59
aVwomen
p60
aVoverweight
p61
aVobese
p62
aVbreast
p63
aVfetishism
p64
aVbreast
p65
aVbreast
p66
aVimplants
p67
aVlarge
p68
aVpenis
p69
aVbuttocks
p70
aVfetishism
p71
aVbuttocks
p72
aVanus
p73
aVlist
p74
aVpornographic
p75
aVsubgenres
p76
aVcamel
p77
aVlabia
p78
aV(genitalia)
p79
aVclitoris
p80
aVfoot
p81
aVfetishism
p82
aVlist
p83
aVpornographic
p84
aVsubgenres
p85
aVmicromastia
p86
aVedit
p87
aVsection:
p88
aVrace
p89
aVethnicity
p90
aVethnic
p91
aVpornography
p92
aVasian
p93
aVpeople
p94
aVeast
p95
aVblack
p96
aV(people)
p97
aVblack
p98
aV(people)
p99
aVafrica
p100
aVafrican-american
p101
aVcaribbean
p102
aVwikipedia:citation
p103
aVneeded
p104
aVeurope
p105
aVwestern
p106
aVeurope
p107
aVeastern
p108
aVeurope
p109
aVinterracial
p110
aVpornography
p111
aVlatino
p112
aVlatins
p113
aVlatin
p114
aVamerica
p115
aVromance-speaking
p116
aVeurope
p117
aVspanish
p118
aVpeople
p119
aVportuguese
p120
aVpeople
p121
aVitalian
p122
aVpeople
p123
aVindigenous
p124
aVpeoples
p125
aVamericas
p126
aVmestiza
p127
aVwikipedia:verifiability
p128
aVmiddle
p129
aVeast
p130
aVarab
p131
aVpeople
p132
aVarab
p133
aVpeople
p134
aVmiddle
p135
aVeast
p136
aVnorth
p137
aVafrica
p138
aVmultiracial
p139
aVedit
p140
aVsection:
p141
aVsubculture
p142
aVporn
p143
aVtattoo
p144
aVpiercing
p145
aVgoth
p146
aVsubculture
p147
aVpunk
p148
aVrock
p149
aVskinhead
p150
aVhippie
p151
aVrave
p152
aVrockabilly
p153
aVgreaser
p154
aV(subculture)
p155
aVcrusty
p156
aVscene
p157
aV(bdsm)
p158
aVskater
p159
aV(subculture)
p160
aVstoner
p161
aV(drug
p162
aVuser)
p163
aVpunk
p164
aVmovement
p165
aVgoth
p166
aVsubculture
p167
aVskinhead
p168
aVrave
p169
aVkustom
p170
aVkulture
p171
aVbruce
p172
aVlabruce
p173
aVedit
p174
aVsection:
p175
aVmiddle
p176
aVmilf
p177
aVpornography
p178
aVteen
p179
aVpornography
p180
aVchild
p181
aVerotica
p182
aVconsent
p183
aVwikipedia:citation
p184
aVneeded
p185
aVchild
p186
aVpornography
p187
aVchildren
p188
aVteenager
p189
aVconsent
p190
aVunited
p191
aVkingdom
p192
aVunited
p193
aVstates
p194
aVindecent
p195
aVpseudo-photograph
p196
aVchild
p197
aVlolicon
p198
aVhentai
p199
aVshotacon
p200
aVedit
p201
aVsection:
p202
aVfetish
p203
aVsexual
p204
aVfetishism
p205
aVlist
p206
aVparaphilias
p207
aVedit
p208
aVsection:
p209
aVbondage/bdsm
p210
aVbondage
p211
aVpornography
p212
aVbdsm
p213
aVfemdom
p214
aVjapanese
p215
aVrope
p216
aVbondage
p217
aVsadomasochism
p218
aV(bdsm)
p219
aVhumiliation
p220
aVbottom
p221
aV(bdsm)
p222
aVviolent
p223
aVhitting
p224
aVchoking
p225
aVname-calling
p226
aVhair
p227
aVrape
p228
aVpornography
p229
aVrape
p230
aVwikipedia:citation
p231
aVneeded
p232
aVerotic
p233
aVspanking
p234
aVflagellation
p235
aVfacesitting
p236
aVsnuff
p237
aVfilm
p238
aVurban
p239
aVlegend
p240
aVarmin
p241
aVmeiwes
p242
aVhardcore
p243
aV(1979
p244
aVfilm)
p245
aVwikipedia:citation
p246
aVneeded
p247
aVtickling
p248
aVtickle
p249
aVtorture
p250
aVstocks
p251
aVguro
p252
aVedit
p253
aVsection:
p254
aVbodily
p255
aVfunctions
p256
aVmenstrual
p257
aVcoprophilia
p258
aVfeces
p259
aVcoprophagia
p260
aVgirls
p261
aVmilking
p262
aVurolagnia
p263
aVurine
p264
aVgolden
p265
aVshowers
p266
aVemetophilia
p267
aVfacial
p268
aV(sex
p269
aVact)
p270
aVpregnancy
p271
aVfetishism
p272
aVerotic
p273
aVlactation
p274
aVfemale
p275
aVejaculation
p276
aVsaliva
p277
aVcum-shot
p278
aVejaculation
p279
aVcrying
p280
aVedit
p281
aVsection:
p282
aVother
p283
aVfetish
p284
aVbarebacking
p285
aVzoophilia
p286
aVwikipedia:citation
p287
aVneeded
p288
aVboot
p289
aVfetishism
p290
aVboot
p291
aVbukkake
p292
aV(sex
p293
aVact)
p294
aVfemale
p295
aVejaculation
p296
aVclothed
p297
aVfemale,
p298
aVnaked
p299
aVmale
p300
aVfellatio
p301
aVhandjob
p302
aVclothed
p303
aVmale,
p304
aVnaked
p305
aVfemale
p306
aVcreampie
p307
aV(sexual
p308
aVact)
p309
aVshot
p310
aVcrush
p311
aVfilm
p312
aVcuckold
p313
aVcuckold
p314
aVswapping
p315
aVhuman
p316
aVmouth
p317
aVdiaper
p318
aVfetishism
p319
aVdwarfism
p320
aVfoot
p321
aVfetish
p322
aVtrampling
p323
aVcrush
p324
aVfilm
p325
aVfelching
p326
aVfisting
p327
aVyiff
p328
aVyiffy
p329
aVfurry
p330
aVfandom
p331
aVanthropomorphic
p332
aVincest
p333
aVpornography
p334
aVtaboo
p335
aVwikipedia:citation
p336
aVneeded
p337
aVmasturbation
p338
aVlolita
p339
aVpornography
p340
aVchild
p341
aVpornography
p342
aVephebophilia
p343
aVwikipedia:citation
p344
aVneeded
p345
aVlolita
p346
aVpoint
p347
aVview
p348
aVpornography
p349
aVlatex
p350
aVsmoking
p351
aVfetish
p352
aVcigarettes
p353
aVcigars
p354
aVcannabis
p355
aVsmoking
p356
aVcannabis
p357
aVsmoking
p358
aVwetlook
p359
aVpantyhose
p360
aVtights
p361
aVstockings
p362
aVbrassiere
p363
aVhigh-heeled
p364
aVfootwear
p365
aVcheerleader
p366
aVarcane
p367
aVoccult
p368
aVjail
p369
aVprison
p370
aVpolice
p371
aVwikipedia:citation
p372
aVneeded
p373
aVmedical
p374
aVphysician
p375
aVnurse
p376
aVpatient
p377
aVenema
p378
aVteacher
p379
aVstudent
p380
aVsecretary
p381
aVtentacle
p382
aVerotica
p383
aVbabysitter
p384
aVpornography
p385
aVteenage
p386
aVgirl
p387
aVtaboo
p388
aVtranssexual/transgender
p389
aVpornography
p390
aV(page
p391
aVdoes
p392
aVexist)
p393
aVmale
p394
aVchange
p395
aVcisgender
p396
aVshemale
p397
aVtranswomen
p398
aVwikipedia:citation
p399
aVneeded
p400
aVwendy
p401
aVwilliams
p402
aV(pornography)
p403
aVtransman
p404
aVfemale
p405
aVchange
p406
aVbuck
p407
aVangel
p408
aVtransvestite
p409
aVhermaphrodite
p410
aVfutanari
p411
aVedit
p412
aVsection:
p413
aVsexual
p414
aVorientation
p415
aVheterosexual
p416
aVedit
p417
aVsection:
p418
aVwith
p419
aVwomen,
p420
aVwomen
p421
aVwith
p422
aVedit
p423
aVsection:
p424
aVwith
p425
aVpornography
p426
aVwikipedia:citation
p427
aVneeded
p428
aVgay-for-pay
p429
aVtwinkie
p430
aV(gay
p431
aVslang)
p432
aVeffeminate
p433
aVbear
p434
aV(gay
p435
aVslang)
p436
aVyaoi
p437
aVbara
p438
aV(genre)
p439
aVedit
p440
aVsection:
p441
aVwomen
p442
aVwith
p443
aVwomen
p444
aVlesbianism
p445
aVerotica
p446
aVlesbian
p447
aVgay-for-pay
p448
aVbutch
p449
aVfemme
p450
aVyuri
p451
aV(genre)
p452
aVedit
p453
aVsection:
p454
aVmultiple
p455
aVwomen
p456
aVbisexual
p457
aVpornography
p458
aV(genre)
p459
aVbukkake
p460
aV(sex
p461
aVact)
p462
aVthreesome
p463
aVgang
p464
aVbang
p465
aVpornography
p466
aVgang-bang
p467
aVgroup
p468
aVorgy
p469
aVswinging
p470
aV(sexual
p471
aVpractice)
p472
aVedit
p473
aVsection:
p474
aVreality
p475
aVreality
p476
aVpornography
p477
aVhome
p478
aVmovies
p479
aVamateur
p480
aVpornography
p481
aVcelebrity
p482
aVtapes
p483
aVpublicity
p484
aVstunt
p485
aVexhibitionism
p486
aVexhibitionism
p487
aVpublic
p488
aVgirls
p489
aVgone
p490
aVwild
p491
aV(franchise)
p492
aVgonzo
p493
aVpornography
p494
aVpoint
p495
aVview
p496
aVpornography
p497
aVupskirt
p498
aVhidden
p499
aVcamera
p500
aVvoyeur
p501
aVexhibitionism
p502
aVtoplessness
p503
aVglory
p504
aVhole
p505
aV(sexual
p506
aVslang)
p507
aVrevenge
p508
aVporn
p509
aVedit
p510
aVsection:
p511
aVspecific
p512
aVacts
p513
aVedit
p514
aVsection:
p515
aVanal
p516
aVanal
p517
aVdildo
p518
aVmouth
p519
aVhuman
p520
aVpenis
p521
aVhuman
p522
aVpenis
p523
aVanal
p524
aVpegging
p525
aV(sexual
p526
aVpractice)
p527
aVstrap-on
p528
aVdildo
p529
aVanalingus
p530
aVedit
p531
aVsection:
p532
aVother
p533
aVacts
p534
aVdeep-throating
p535
aVfellatio
p536
aVirrumatio
p537
aVpositions
p538
aVfisting
p539
aVoral
p540
aVfellatio
p541
aVcunnilingus
p542
aVmasturbation
p543
aVauto-fellatio
p544
aVedit
p545
aVsection:
p546
aVother
p547
aVcategories
p548
aVedit
p549
aVsection:
p550
aVcomputer-generated,
p551
aVinteractive,
p552
aVanimated
p553
aVcartoon
p554
aVpornography
p555
aVhentai
p556
aVmanga
p557
aVanime
p558
aVcomputer
p559
aVgames
p560
aVjapanese
p561
aVlanguage
p562
aVwikipedia:citation
p563
aVneeded
p564
aVyaoi
p565
aVyuri
p566
aV(genre)
p567
aVlesbian
p568
aVinteractive
p569
aVpornography
p570
aVcd-rom
p571
aVedit
p572
aVsection:
p573
aVmiscellaneous
p574
aVgolden
p575
aVporn
p576
aVlist
p577
aVparaphilias
p578
aVcopyright
p579
aVplot
p580
aV(narrative)
p581
aVporn
p582
aVparody
p583
aVindependent
p584
aVpornography
p585
aVpornography
p586
aVjapan
p587
aVobscenity
p588
aVerotic
p589
aVsection
p590
aVcriminal
p591
aVjustice
p592
aVimmigration
p593
aV2008
p594
aVwomen's
p595
aVpornography
p596
aVedit
p597
aVsection:
p598
aValso
p599
aVlists
p600
aVpornographic
p601
aVactors
p602
aVlist
p603
aVpornographic
p604
aVfilm
p605
aVstudios
p606
aVedit
p607
aVsection:
p608
aVreferences
p609
aVmartin
p610
aVamis
p611
aVguardian.co.uk
p612
aVnerve
p613
aV(website)
p614
aVhelp:cs1
p615
aVerrors
p616
aVtemplate:pornography
p617
aVtemplate
p618
aVtalk:pornography
p619
aVpornography
p620
aVportal:pornography
p621
aVcommons:category:pornography
p622
aVwikiquote:pornography
p623
aVwikt:pornography
p624
aVcategory:pornography
p625
aVamateur
p626
aVpornography
p627
aVcartoon
p628
aVpornography
p629
aVhentai
p630
aVtijuana
p631
aVbible
p632
aVchild
p633
aVpornography
p634
aVchild
p635
aVerotica
p636
aVsimulated
p637
aVchild
p638
aVpornography
p639
aVfeminist
p640
aVpornography
p641
aVhardcore
p642
aVpornography
p643
aVinternet
p644
aVpornography
p645
aVmobile
p646
aVporn
p647
aVrevenge
p648
aVporn
p649
aVsexting
p650
aVsoftcore
p651
aVpornography
p652
aVporn
p653
aVbabysitter
p654
aVpornography
p655
aVbisexual
p656
aVpornography
p657
aVbondage
p658
aVpornography
p659
aVimagery
p660
aVnude
p661
aVcelebrities
p662
aVcelebrity
p663
aVtape
p664
aVclothed
p665
aVfemale,
p666
aVnaked
p667
aVmale
p668
aVclothed
p669
aVmale,
p670
aVnaked
p671
aVfemale
p672
aVconvent
p673
aVpornography
p674
aVethnic
p675
aVpornography
p676
aVgang
p677
aVbang
p678
aVpornography
p679
aVpornography
p680
aVgonzo
p681
aVpornography
p682
aVincest
p683
aVpornography
p684
aVlesbianism
p685
aVerotica
p686
aVmormon
p687
aVpornography
p688
aVrape
p689
aVpornography
p690
aVreality
p691
aVpornography
p692
aVtentacle
p693
aVerotica
p694
aVtranssexual
p695
aVpornography
p696
aVwomen's
p697
a.